target datalayout = "e-m:e-p270:32:32-p271:32:32-p272:64:64-i64:64-i128:128-f80:128-n8:16:32:64-S128"
target triple = "x86_64-pc-linux-gnu"

; Function Attrs: nounwind uwtable
define i32 @Dau_DsdCheckDecAndExist_rec(ptr noundef %0, ptr noundef %1, ptr noundef %2, ptr noundef %3) #0 {
  %5 = alloca i32, align 4
  %6 = alloca ptr, align 8
  %7 = alloca ptr, align 8
  %8 = alloca ptr, align 8
  %9 = alloca ptr, align 8
  %10 = alloca i32, align 4
  %11 = alloca i32, align 4
  %12 = alloca i32, align 4
  %13 = alloca [8 x i32], align 16
  %14 = alloca i32, align 4
  %15 = alloca i32, align 4
  %16 = alloca i32, align 4
  %17 = alloca ptr, align 8
  %18 = alloca i32, align 4
  %19 = alloca i32, align 4
  %20 = alloca i32, align 4
  %21 = alloca ptr, align 8
  store ptr %0, ptr %6, align 8, !tbaa !3
  store ptr %1, ptr %7, align 8, !tbaa !8
  store ptr %2, ptr %8, align 8, !tbaa !10
  store ptr %3, ptr %9, align 8, !tbaa !10
  %22 = load ptr, ptr %7, align 8, !tbaa !8
  %23 = load ptr, ptr %22, align 8, !tbaa !3
  %24 = load i8, ptr %23, align 1, !tbaa !12
  %25 = sext i8 %24 to i32
  %26 = icmp eq i32 %25, 33
  br i1 %26, label %27, label %31

27:                                               ; preds = %4
  %28 = load ptr, ptr %7, align 8, !tbaa !8
  %29 = load ptr, ptr %28, align 8, !tbaa !3
  %30 = getelementptr inbounds nuw i8, ptr %29, i32 1
  store ptr %30, ptr %28, align 8, !tbaa !3
  br label %31

31:                                               ; preds = %27, %4
  br label %32

32:                                               ; preds = %60, %31
  %33 = load ptr, ptr %7, align 8, !tbaa !8
  %34 = load ptr, ptr %33, align 8, !tbaa !3
  %35 = load i8, ptr %34, align 1, !tbaa !12
  %36 = sext i8 %35 to i32
  %37 = icmp sge i32 %36, 65
  br i1 %37, label %38, label %44

38:                                               ; preds = %32
  %39 = load ptr, ptr %7, align 8, !tbaa !8
  %40 = load ptr, ptr %39, align 8, !tbaa !3
  %41 = load i8, ptr %40, align 1, !tbaa !12
  %42 = sext i8 %41 to i32
  %43 = icmp sle i32 %42, 70
  br i1 %43, label %58, label %44

44:                                               ; preds = %38, %32
  %45 = load ptr, ptr %7, align 8, !tbaa !8
  %46 = load ptr, ptr %45, align 8, !tbaa !3
  %47 = load i8, ptr %46, align 1, !tbaa !12
  %48 = sext i8 %47 to i32
  %49 = icmp sge i32 %48, 48
  br i1 %49, label %50, label %56

50:                                               ; preds = %44
  %51 = load ptr, ptr %7, align 8, !tbaa !8
  %52 = load ptr, ptr %51, align 8, !tbaa !3
  %53 = load i8, ptr %52, align 1, !tbaa !12
  %54 = sext i8 %53 to i32
  %55 = icmp sle i32 %54, 57
  br label %56

56:                                               ; preds = %50, %44
  %57 = phi i1 [ false, %44 ], [ %55, %50 ]
  br label %58

58:                                               ; preds = %56, %38
  %59 = phi i1 [ true, %38 ], [ %57, %56 ]
  br i1 %59, label %60, label %64

60:                                               ; preds = %58
  %61 = load ptr, ptr %7, align 8, !tbaa !8
  %62 = load ptr, ptr %61, align 8, !tbaa !3
  %63 = getelementptr inbounds nuw i8, ptr %62, i32 1
  store ptr %63, ptr %61, align 8, !tbaa !3
  br label %32, !llvm.loop !21

64:                                               ; preds = %58
  %65 = load ptr, ptr %7, align 8, !tbaa !8
  %66 = load ptr, ptr %65, align 8, !tbaa !3
  %67 = load i8, ptr %66, align 1, !tbaa !12
  %68 = sext i8 %67 to i32
  %69 = icmp sge i32 %68, 97
  br i1 %69, label %70, label %80

70:                                               ; preds = %64
  %71 = load ptr, ptr %7, align 8, !tbaa !8
  %72 = load ptr, ptr %71, align 8, !tbaa !3
  %73 = load i8, ptr %72, align 1, !tbaa !12
  %74 = sext i8 %73 to i32
  %75 = icmp sle i32 %74, 122
  br i1 %75, label %76, label %80

76:                                               ; preds = %70
  %77 = load ptr, ptr %9, align 8, !tbaa !10
  %78 = load i32, ptr %77, align 4, !tbaa !15
  %79 = add nsw i32 %78, 1
  store i32 %79, ptr %77, align 4, !tbaa !15
  store i32 0, ptr %5, align 4
  br label %271

80:                                               ; preds = %70, %64
  %81 = load ptr, ptr %7, align 8, !tbaa !8
  %82 = load ptr, ptr %81, align 8, !tbaa !3
  %83 = load i8, ptr %82, align 1, !tbaa !12
  %84 = sext i8 %83 to i32
  %85 = icmp eq i32 %84, 40
  br i1 %85, label %86, label %214

86:                                               ; preds = %80
  call void @llvm.lifetime.start.p0(i64 4, ptr %10) #5
  store i32 0, ptr %10, align 4, !tbaa !15
  call void @llvm.lifetime.start.p0(i64 4, ptr %11) #5
  call void @llvm.lifetime.start.p0(i64 4, ptr %12) #5
  call void @llvm.lifetime.start.p0(i64 32, ptr %13) #5
  call void @llvm.memset.p0.i64(ptr align 16 %13, i8 0, i64 32, i1 false)
  call void @llvm.lifetime.start.p0(i64 4, ptr %14) #5
  store i32 0, ptr %14, align 4, !tbaa !15
  call void @llvm.lifetime.start.p0(i64 4, ptr %15) #5
  store i32 0, ptr %15, align 4, !tbaa !15
  call void @llvm.lifetime.start.p0(i64 4, ptr %16) #5
  call void @llvm.lifetime.start.p0(i64 8, ptr %17) #5
  %87 = load ptr, ptr %6, align 8, !tbaa !3
  %88 = load ptr, ptr %8, align 8, !tbaa !10
  %89 = load ptr, ptr %7, align 8, !tbaa !8
  %90 = load ptr, ptr %89, align 8, !tbaa !3
  %91 = load ptr, ptr %6, align 8, !tbaa !3
  %92 = ptrtoint ptr %90 to i64
  %93 = ptrtoint ptr %91 to i64
  %94 = sub i64 %92, %93
  %95 = getelementptr inbounds i32, ptr %88, i64 %94
  %96 = load i32, ptr %95, align 4, !tbaa !15
  %97 = sext i32 %96 to i64
  %98 = getelementptr inbounds i8, ptr %87, i64 %97
  store ptr %98, ptr %17, align 8, !tbaa !3
  %99 = load ptr, ptr %7, align 8, !tbaa !8
  %100 = load ptr, ptr %99, align 8, !tbaa !3
  %101 = getelementptr inbounds nuw i8, ptr %100, i32 1
  store ptr %101, ptr %99, align 8, !tbaa !3
  br label %102

102:                                              ; preds = %133, %86
  %103 = load ptr, ptr %7, align 8, !tbaa !8
  %104 = load ptr, ptr %103, align 8, !tbaa !3
  %105 = load ptr, ptr %17, align 8, !tbaa !3
  %106 = icmp ult ptr %104, %105
  br i1 %106, label %107, label %137

107:                                              ; preds = %102
  %108 = load ptr, ptr %6, align 8, !tbaa !3
  %109 = load ptr, ptr %7, align 8, !tbaa !8
  %110 = load ptr, ptr %8, align 8, !tbaa !10
  %111 = load i32, ptr %14, align 4, !tbaa !15
  %112 = sext i32 %111 to i64
  %113 = getelementptr inbounds [8 x i32], ptr %13, i64 0, i64 %112
  %114 = call i32 @Dau_DsdCheckDecAndExist_rec(ptr noundef %108, ptr noundef %109, ptr noundef %110, ptr noundef %113)
  %115 = load i32, ptr %10, align 4, !tbaa !15
  %116 = or i32 %115, %114
  store i32 %116, ptr %10, align 4, !tbaa !15
  %117 = load i32, ptr %14, align 4, !tbaa !15
  %118 = sext i32 %117 to i64
  %119 = getelementptr inbounds [8 x i32], ptr %13, i64 0, i64 %118
  %120 = load i32, ptr %119, align 4, !tbaa !15
  %121 = icmp eq i32 %120, 1
  %122 = zext i1 %121 to i32
  %123 = load i32, ptr %15, align 4, !tbaa !15
  %124 = add nsw i32 %123, %122
  store i32 %124, ptr %15, align 4, !tbaa !15
  %125 = load i32, ptr %14, align 4, !tbaa !15
  %126 = add nsw i32 %125, 1
  store i32 %126, ptr %14, align 4, !tbaa !15
  %127 = sext i32 %125 to i64
  %128 = getelementptr inbounds [8 x i32], ptr %13, i64 0, i64 %127
  %129 = load i32, ptr %128, align 4, !tbaa !15
  %130 = load ptr, ptr %9, align 8, !tbaa !10
  %131 = load i32, ptr %130, align 4, !tbaa !15
  %132 = add nsw i32 %131, %129
  store i32 %132, ptr %130, align 4, !tbaa !15
  br label %133

133:                                              ; preds = %107
  %134 = load ptr, ptr %7, align 8, !tbaa !8
  %135 = load ptr, ptr %134, align 8, !tbaa !3
  %136 = getelementptr inbounds nuw i8, ptr %135, i32 1
  store ptr %136, ptr %134, align 8, !tbaa !3
  br label %102, !llvm.loop !22

137:                                              ; preds = %102
  %138 = load i32, ptr %15, align 4, !tbaa !15
  %139 = icmp sgt i32 %138, 0
  br i1 %139, label %140, label %212

140:                                              ; preds = %137
  %141 = load i32, ptr %14, align 4, !tbaa !15
  %142 = shl i32 1, %141
  store i32 %142, ptr %16, align 4, !tbaa !15
  store i32 1, ptr %11, align 4, !tbaa !15
  br label %143

143:                                              ; preds = %195, %140
  %144 = load i32, ptr %11, align 4, !tbaa !15
  %145 = load i32, ptr %16, align 4, !tbaa !15
  %146 = icmp slt i32 %144, %145
  br i1 %146, label %147, label %198

147:                                              ; preds = %143
  call void @llvm.lifetime.start.p0(i64 4, ptr %18) #5
  store i32 0, ptr %18, align 4, !tbaa !15
  store i32 0, ptr %12, align 4, !tbaa !15
  br label %148

148:                                              ; preds = %172, %147
  %149 = load i32, ptr %12, align 4, !tbaa !15
  %150 = load i32, ptr %14, align 4, !tbaa !15
  %151 = icmp slt i32 %149, %150
  br i1 %151, label %152, label %175

152:                                              ; preds = %148
  %153 = load i32, ptr %12, align 4, !tbaa !15
  %154 = sext i32 %153 to i64
  %155 = getelementptr inbounds [8 x i32], ptr %13, i64 0, i64 %154
  %156 = load i32, ptr %155, align 4, !tbaa !15
  %157 = icmp sgt i32 %156, 1
  br i1 %157, label %158, label %171

158:                                              ; preds = %152
  %159 = load i32, ptr %11, align 4, !tbaa !15
  %160 = load i32, ptr %12, align 4, !tbaa !15
  %161 = ashr i32 %159, %160
  %162 = and i32 %161, 1
  %163 = icmp ne i32 %162, 0
  br i1 %163, label %164, label %171

164:                                              ; preds = %158
  %165 = load i32, ptr %12, align 4, !tbaa !15
  %166 = sext i32 %165 to i64
  %167 = getelementptr inbounds [8 x i32], ptr %13, i64 0, i64 %166
  %168 = load i32, ptr %167, align 4, !tbaa !15
  %169 = load i32, ptr %18, align 4, !tbaa !15
  %170 = add nsw i32 %169, %168
  store i32 %170, ptr %18, align 4, !tbaa !15
  br label %171

171:                                              ; preds = %164, %158, %152
  br label %172

172:                                              ; preds = %171
  %173 = load i32, ptr %12, align 4, !tbaa !15
  %174 = add nsw i32 %173, 1
  store i32 %174, ptr %12, align 4, !tbaa !15
  br label %148, !llvm.loop !23

175:                                              ; preds = %148
  %176 = load i32, ptr %18, align 4, !tbaa !15
  %177 = icmp sge i32 %176, 2
  br i1 %177, label %178, label %194

178:                                              ; preds = %175
  store i32 0, ptr %12, align 4, !tbaa !15
  br label %179

179:                                              ; preds = %190, %178
  %180 = load i32, ptr %12, align 4, !tbaa !15
  %181 = load i32, ptr %15, align 4, !tbaa !15
  %182 = icmp slt i32 %180, %181
  br i1 %182, label %183, label %193

183:                                              ; preds = %179
  %184 = load i32, ptr %18, align 4, !tbaa !15
  %185 = load i32, ptr %12, align 4, !tbaa !15
  %186 = add nsw i32 %184, %185
  %187 = shl i32 1, %186
  %188 = load i32, ptr %10, align 4, !tbaa !15
  %189 = or i32 %188, %187
  store i32 %189, ptr %10, align 4, !tbaa !15
  br label %190

190:                                              ; preds = %183
  %191 = load i32, ptr %12, align 4, !tbaa !15
  %192 = add nsw i32 %191, 1
  store i32 %192, ptr %12, align 4, !tbaa !15
  br label %179, !llvm.loop !24

193:                                              ; preds = %179
  br label %194

194:                                              ; preds = %193, %175
  call void @llvm.lifetime.end.p0(i64 4, ptr %18) #5
  br label %195

195:                                              ; preds = %194
  %196 = load i32, ptr %11, align 4, !tbaa !15
  %197 = add nsw i32 %196, 1
  store i32 %197, ptr %11, align 4, !tbaa !15
  br label %143, !llvm.loop !25

198:                                              ; preds = %143
  store i32 2, ptr %12, align 4, !tbaa !15
  br label %199

199:                                              ; preds = %208, %198
  %200 = load i32, ptr %12, align 4, !tbaa !15
  %201 = load i32, ptr %15, align 4, !tbaa !15
  %202 = icmp slt i32 %200, %201
  br i1 %202, label %203, label %211

203:                                              ; preds = %199
  %204 = load i32, ptr %12, align 4, !tbaa !15
  %205 = shl i32 1, %204
  %206 = load i32, ptr %10, align 4, !tbaa !15
  %207 = or i32 %206, %205
  store i32 %207, ptr %10, align 4, !tbaa !15
  br label %208

208:                                              ; preds = %203
  %209 = load i32, ptr %12, align 4, !tbaa !15
  %210 = add nsw i32 %209, 1
  store i32 %210, ptr %12, align 4, !tbaa !15
  br label %199, !llvm.loop !26

211:                                              ; preds = %199
  br label %212

212:                                              ; preds = %211, %137
  %213 = load i32, ptr %10, align 4, !tbaa !15
  store i32 %213, ptr %5, align 4
  call void @llvm.lifetime.end.p0(i64 8, ptr %17) #5
  call void @llvm.lifetime.end.p0(i64 4, ptr %16) #5
  call void @llvm.lifetime.end.p0(i64 4, ptr %15) #5
  call void @llvm.lifetime.end.p0(i64 4, ptr %14) #5
  call void @llvm.lifetime.end.p0(i64 32, ptr %13) #5
  call void @llvm.lifetime.end.p0(i64 4, ptr %12) #5
  call void @llvm.lifetime.end.p0(i64 4, ptr %11) #5
  call void @llvm.lifetime.end.p0(i64 4, ptr %10) #5
  br label %271

214:                                              ; preds = %80
  %215 = load ptr, ptr %7, align 8, !tbaa !8
  %216 = load ptr, ptr %215, align 8, !tbaa !3
  %217 = load i8, ptr %216, align 1, !tbaa !12
  %218 = sext i8 %217 to i32
  %219 = icmp eq i32 %218, 60
  br i1 %219, label %232, label %220

220:                                              ; preds = %214
  %221 = load ptr, ptr %7, align 8, !tbaa !8
  %222 = load ptr, ptr %221, align 8, !tbaa !3
  %223 = load i8, ptr %222, align 1, !tbaa !12
  %224 = sext i8 %223 to i32
  %225 = icmp eq i32 %224, 123
  br i1 %225, label %232, label %226

226:                                              ; preds = %220
  %227 = load ptr, ptr %7, align 8, !tbaa !8
  %228 = load ptr, ptr %227, align 8, !tbaa !3
  %229 = load i8, ptr %228, align 1, !tbaa !12
  %230 = sext i8 %229 to i32
  %231 = icmp eq i32 %230, 91
  br i1 %231, label %232, label %270

232:                                              ; preds = %226, %220, %214
  call void @llvm.lifetime.start.p0(i64 4, ptr %19) #5
  call void @llvm.lifetime.start.p0(i64 4, ptr %20) #5
  store i32 0, ptr %20, align 4, !tbaa !15
  call void @llvm.lifetime.start.p0(i64 8, ptr %21) #5
  %233 = load ptr, ptr %6, align 8, !tbaa !3
  %234 = load ptr, ptr %8, align 8, !tbaa !10
  %235 = load ptr, ptr %7, align 8, !tbaa !8
  %236 = load ptr, ptr %235, align 8, !tbaa !3
  %237 = load ptr, ptr %6, align 8, !tbaa !3
  %238 = ptrtoint ptr %236 to i64
  %239 = ptrtoint ptr %237 to i64
  %240 = sub i64 %238, %239
  %241 = getelementptr inbounds i32, ptr %234, i64 %240
  %242 = load i32, ptr %241, align 4, !tbaa !15
  %243 = sext i32 %242 to i64
  %244 = getelementptr inbounds i8, ptr %233, i64 %243
  store ptr %244, ptr %21, align 8, !tbaa !3
  %245 = load ptr, ptr %7, align 8, !tbaa !8
  %246 = load ptr, ptr %245, align 8, !tbaa !3
  %247 = getelementptr inbounds nuw i8, ptr %246, i32 1
  store ptr %247, ptr %245, align 8, !tbaa !3
  br label %248

248:                                              ; preds = %264, %232
  %249 = load ptr, ptr %7, align 8, !tbaa !8
  %250 = load ptr, ptr %249, align 8, !tbaa !3
  %251 = load ptr, ptr %21, align 8, !tbaa !3
  %252 = icmp ult ptr %250, %251
  br i1 %252, label %253, label %268

253:                                              ; preds = %248
  store i32 0, ptr %19, align 4, !tbaa !15
  %254 = load ptr, ptr %6, align 8, !tbaa !3
  %255 = load ptr, ptr %7, align 8, !tbaa !8
  %256 = load ptr, ptr %8, align 8, !tbaa !10
  %257 = call i32 @Dau_DsdCheckDecAndExist_rec(ptr noundef %254, ptr noundef %255, ptr noundef %256, ptr noundef %19)
  %258 = load i32, ptr %20, align 4, !tbaa !15
  %259 = or i32 %258, %257
  store i32 %259, ptr %20, align 4, !tbaa !15
  %260 = load i32, ptr %19, align 4, !tbaa !15
  %261 = load ptr, ptr %9, align 8, !tbaa !10
  %262 = load i32, ptr %261, align 4, !tbaa !15
  %263 = add nsw i32 %262, %260
  store i32 %263, ptr %261, align 4, !tbaa !15
  br label %264

264:                                              ; preds = %253
  %265 = load ptr, ptr %7, align 8, !tbaa !8
  %266 = load ptr, ptr %265, align 8, !tbaa !3
  %267 = getelementptr inbounds nuw i8, ptr %266, i32 1
  store ptr %267, ptr %265, align 8, !tbaa !3
  br label %248, !llvm.loop !27

268:                                              ; preds = %248
  %269 = load i32, ptr %20, align 4, !tbaa !15
  store i32 %269, ptr %5, align 4
  call void @llvm.lifetime.end.p0(i64 8, ptr %21) #5
  call void @llvm.lifetime.end.p0(i64 4, ptr %20) #5
  call void @llvm.lifetime.end.p0(i64 4, ptr %19) #5
  br label %271

270:                                              ; preds = %226
  store i32 0, ptr %5, align 4
  br label %271

271:                                              ; preds = %270, %268, %212, %76
  %272 = load i32, ptr %5, align 4
  ret i32 %272
}