; Function Attrs: nofree nosync nounwind memory(read, argmem: readwrite, inaccessiblemem: none) uwtable
define i32 @Dau_DsdCheckDecAndExist_rec(ptr noundef %0, ptr noundef %1, ptr noundef %2, ptr noundef captures(none) %3) local_unnamed_addr #0 {
  %5 = alloca [8 x i32], align 16
  %6 = alloca i32, align 4
  %7 = load ptr, ptr %1, align 8, !tbaa !3
  %8 = load i8, ptr %7, align 1, !tbaa !8
  %9 = icmp eq i8 %8, 33
  br i1 %9, label %10, label %12

10:                                               ; preds = %4
  %11 = getelementptr inbounds nuw i8, ptr %7, i64 1
  store ptr %11, ptr %1, align 8, !tbaa !3
  %.pre = load i8, ptr %11, align 1, !tbaa !8
  br label %12

12:                                               ; preds = %10, %4
  %13 = phi i8 [ %.pre, %10 ], [ %8, %4 ]
  %.promoted = phi ptr [ %11, %10 ], [ %7, %4 ]
  %14 = add i8 %13, -65
  %or.cond98 = icmp ult i8 %14, 6
  %15 = add i8 %13, -48
  %or.cond9199 = icmp ult i8 %15, 10
  %or.cond93100 = or i1 %or.cond98, %or.cond9199
  br i1 %or.cond93100, label %.critedge, label %.critedge2

.critedge:                                        ; preds = %12, %.critedge
  %16 = phi ptr [ %17, %.critedge ], [ %.promoted, %12 ]
  %17 = getelementptr inbounds nuw i8, ptr %16, i64 1
  store ptr %17, ptr %1, align 8, !tbaa !3
  %18 = load i8, ptr %17, align 1, !tbaa !8
  %19 = add i8 %18, -65
  %or.cond = icmp ult i8 %19, 6
  %20 = add i8 %18, -48
  %or.cond91 = icmp ult i8 %20, 10
  %or.cond93 = or i1 %or.cond, %or.cond91
  br i1 %or.cond93, label %.critedge, label %.critedge2, !llvm.loop !17

.critedge2:                                       ; preds = %.critedge, %12
  %.lcssa97 = phi ptr [ %.promoted, %12 ], [ %17, %.critedge ]
  %.lcssa = phi i8 [ %13, %12 ], [ %18, %.critedge ]
  %21 = add i8 %.lcssa, -97
  %or.cond92 = icmp ult i8 %21, 26
  br i1 %or.cond92, label %22, label %25

22:                                               ; preds = %.critedge2
  %23 = load i32, ptr %3, align 4, !tbaa !11
  %24 = add nsw i32 %23, 1
  store i32 %24, ptr %3, align 4, !tbaa !11
  br label %86

25:                                               ; preds = %.critedge2
  switch i8 %.lcssa, label %86 [
    i8 40, label %26
    i8 60, label %70
    i8 123, label %70
    i8 91, label %70
  ]

26:                                               ; preds = %25
  call void @llvm.lifetime.start.p0(i64 32, ptr nonnull %5) #6
  call void @llvm.memset.p0.i64(ptr noundef nonnull align 16 dereferenceable(32) %5, i8 0, i64 32, i1 false)
  %27 = ptrtoint ptr %.lcssa97 to i64
  %28 = ptrtoint ptr %0 to i64
  %29 = sub i64 %27, %28
  %30 = getelementptr inbounds i32, ptr %2, i64 %29
  %31 = load i32, ptr %30, align 4, !tbaa !11
  %32 = sext i32 %31 to i64
  %33 = getelementptr inbounds i8, ptr %0, i64 %32
  %storemerge88105 = getelementptr inbounds nuw i8, ptr %.lcssa97, i64 1
  store ptr %storemerge88105, ptr %1, align 8, !tbaa !3
  %34 = icmp ult ptr %storemerge88105, %33
  br i1 %34, label %.lr.ph110, label %.loopexit

.lr.ph110:                                        ; preds = %26, %.lr.ph110
  %indvars.iv = phi i64 [ %indvars.iv.next, %.lr.ph110 ], [ 0, %26 ]
  %.075108 = phi i32 [ %37, %.lr.ph110 ], [ 0, %26 ]
  %.078107 = phi i32 [ %41, %.lr.ph110 ], [ 0, %26 ]
  %35 = getelementptr inbounds nuw [8 x i32], ptr %5, i64 0, i64 %indvars.iv
  %36 = call i32 @Dau_DsdCheckDecAndExist_rec(ptr noundef %0, ptr noundef nonnull %1, ptr noundef %2, ptr noundef nonnull %35)
  %37 = or i32 %36, %.075108
  %38 = load i32, ptr %35, align 4, !tbaa !11
  %39 = icmp eq i32 %38, 1
  %40 = zext i1 %39 to i32
  %41 = add nuw nsw i32 %.078107, %40
  %indvars.iv.next = add nuw nsw i64 %indvars.iv, 1
  %42 = load i32, ptr %3, align 4, !tbaa !11
  %43 = add nsw i32 %42, %38
  store i32 %43, ptr %3, align 4, !tbaa !11
  %44 = load ptr, ptr %1, align 8, !tbaa !3
  %storemerge88 = getelementptr inbounds nuw i8, ptr %44, i64 1
  store ptr %storemerge88, ptr %1, align 8, !tbaa !3
  %45 = icmp ult ptr %storemerge88, %33
  br i1 %45, label %.lr.ph110, label %._crit_edge111, !llvm.loop !18

._crit_edge111:                                   ; preds = %.lr.ph110
  %.not = icmp eq i32 %41, 0
  br i1 %.not, label %.loopexit, label %46

46:                                               ; preds = %._crit_edge111
  %47 = trunc nuw i64 %indvars.iv.next to i32
  %48 = shl nuw i32 1, %47
  %49 = icmp slt i32 %48, 2
  br i1 %49, label %.preheader, label %.preheader96.us.preheader

.preheader96.us.preheader:                        ; preds = %46
  %wide.trip.count = and i64 %indvars.iv.next, 4294967295
  br label %.preheader96.us

.preheader96.us:                                  ; preds = %.preheader96.us.preheader, %.loopexit95.us
  %.2123.us = phi i32 [ %.3.us, %.loopexit95.us ], [ %37, %.preheader96.us.preheader ]
  %.077122.us = phi i32 [ %50, %.loopexit95.us ], [ 1, %.preheader96.us.preheader ]
  br label %55

.loopexit95.us:                                   ; preds = %.preheader94.us, %._crit_edge118.us
  %.3.us = phi i32 [ %.2123.us, %._crit_edge118.us ], [ %53, %.preheader94.us ]
  %50 = add nuw nsw i32 %.077122.us, 1
  %exitcond144.not = icmp eq i32 %50, %48
  br i1 %exitcond144.not, label %.preheader, label %.preheader96.us, !llvm.loop !19

.preheader94.us:                                  ; preds = %._crit_edge118.us, %.preheader94.us
  %.4121.us = phi i32 [ %53, %.preheader94.us ], [ %.2123.us, %._crit_edge118.us ]
  %.181120.us = phi i32 [ %54, %.preheader94.us ], [ 0, %._crit_edge118.us ]
  %51 = add nuw nsw i32 %.181120.us, %.1.us
  %52 = shl nuw i32 1, %51
  %53 = or i32 %52, %.4121.us
  %54 = add nuw nsw i32 %.181120.us, 1
  %exitcond143.not = icmp eq i32 %54, %41
  br i1 %exitcond143.not, label %.loopexit95.us, label %.preheader94.us, !llvm.loop !20

55:                                               ; preds = %.preheader96.us, %64
  %indvars.iv140 = phi i64 [ 0, %.preheader96.us ], [ %indvars.iv.next141, %64 ]
  %.074116.us = phi i32 [ 0, %.preheader96.us ], [ %.1.us, %64 ]
  %56 = getelementptr inbounds nuw [8 x i32], ptr %5, i64 0, i64 %indvars.iv140
  %57 = load i32, ptr %56, align 4, !tbaa !11
  %58 = icmp sgt i32 %57, 1
  br i1 %58, label %59, label %64

59:                                               ; preds = %55
  %60 = trunc nuw nsw i64 %indvars.iv140 to i32
  %61 = shl nuw i32 1, %60
  %62 = and i32 %61, %.077122.us
  %.not89.us = icmp eq i32 %62, 0
  %63 = select i1 %.not89.us, i32 0, i32 %57
  %spec.select.us = add nuw nsw i32 %63, %.074116.us
  br label %64

64:                                               ; preds = %59, %55
  %.1.us = phi i32 [ %.074116.us, %55 ], [ %spec.select.us, %59 ]
  %indvars.iv.next141 = add nuw nsw i64 %indvars.iv140, 1
  %exitcond.not = icmp eq i64 %indvars.iv.next141, %wide.trip.count
  br i1 %exitcond.not, label %._crit_edge118.us, label %55, !llvm.loop !21

._crit_edge118.us:                                ; preds = %64
  %65 = icmp sgt i32 %.1.us, 1
  br i1 %65, label %.preheader94.us, label %.loopexit95.us

.preheader:                                       ; preds = %.loopexit95.us, %46
  %.2.lcssa = phi i32 [ %37, %46 ], [ %.3.us, %.loopexit95.us ]
  %66 = icmp samesign ugt i32 %41, 2
  br i1 %66, label %.lr.ph127, label %.loopexit

.lr.ph127:                                        ; preds = %.preheader, %.lr.ph127
  %.5126 = phi i32 [ %68, %.lr.ph127 ], [ %.2.lcssa, %.preheader ]
  %.282125 = phi i32 [ %69, %.lr.ph127 ], [ 2, %.preheader ]
  %67 = shl nuw i32 1, %.282125
  %68 = or i32 %.5126, %67
  %69 = add nuw nsw i32 %.282125, 1
  %exitcond145.not = icmp eq i32 %69, %41
  br i1 %exitcond145.not, label %.loopexit, label %.lr.ph127, !llvm.loop !22

.loopexit:                                        ; preds = %.lr.ph127, %26, %.preheader, %._crit_edge111
  %.176 = phi i32 [ %37, %._crit_edge111 ], [ %.2.lcssa, %.preheader ], [ 0, %26 ], [ %68, %.lr.ph127 ]
  call void @llvm.lifetime.end.p0(i64 32, ptr nonnull %5) #6
  br label %86

70:                                               ; preds = %25, %25, %25
  call void @llvm.lifetime.start.p0(i64 4, ptr nonnull %6) #6
  %71 = ptrtoint ptr %.lcssa97 to i64
  %72 = ptrtoint ptr %0 to i64
  %73 = sub i64 %71, %72
  %74 = getelementptr inbounds i32, ptr %2, i64 %73
  %75 = load i32, ptr %74, align 4, !tbaa !11
  %76 = sext i32 %75 to i64
  %77 = getelementptr inbounds i8, ptr %0, i64 %76
  %storemerge102 = getelementptr inbounds nuw i8, ptr %.lcssa97, i64 1
  store ptr %storemerge102, ptr %1, align 8, !tbaa !3
  %78 = icmp ult ptr %storemerge102, %77
  br i1 %78, label %.lr.ph, label %._crit_edge

.lr.ph:                                           ; preds = %70, %.lr.ph
  %.073103 = phi i32 [ %80, %.lr.ph ], [ 0, %70 ]
  store i32 0, ptr %6, align 4, !tbaa !11
  %79 = call i32 @Dau_DsdCheckDecAndExist_rec(ptr noundef %0, ptr noundef nonnull %1, ptr noundef %2, ptr noundef nonnull %6)
  %80 = or i32 %79, %.073103
  %81 = load i32, ptr %6, align 4, !tbaa !11
  %82 = load i32, ptr %3, align 4, !tbaa !11
  %83 = add nsw i32 %82, %81
  store i32 %83, ptr %3, align 4, !tbaa !11
  %84 = load ptr, ptr %1, align 8, !tbaa !3
  %storemerge = getelementptr inbounds nuw i8, ptr %84, i64 1
  store ptr %storemerge, ptr %1, align 8, !tbaa !3
  %85 = icmp ult ptr %storemerge, %77
  br i1 %85, label %.lr.ph, label %._crit_edge, !llvm.loop !23

._crit_edge:                                      ; preds = %.lr.ph, %70
  %.073.lcssa = phi i32 [ 0, %70 ], [ %80, %.lr.ph ]
  call void @llvm.lifetime.end.p0(i64 4, ptr nonnull %6) #6
  br label %86

86:                                               ; preds = %25, %._crit_edge, %.loopexit, %22
  %.0 = phi i32 [ 0, %22 ], [ %.176, %.loopexit ], [ %.073.lcssa, %._crit_edge ], [ 0, %25 ]
  ret i32 %.0
}